target datalayout = "e-m:e-p270:32:32-p271:32:32-p272:64:64-i64:64-i128:128-f80:128-n8:16:32:64-S128"
target triple = "x86_64-pc-linux-gnu"

%struct.vars = type { ptr, ptr, ptr, i32, i32, i32, i32, i32, i32, i32, ptr, i64, [10 x ptr], ptr, ptr, i16, ptr, ptr, ptr, ptr, i32, ptr, ptr, ptr, i32, i64 }
%struct.pg_regex_t = type { i32, i64, i64, i32, ptr, i32, ptr, ptr }

; Function Attrs: nounwind uwtable
define internal void @wordchrs(ptr noundef %0) #0 {
  %2 = alloca ptr, align 8
  %3 = alloca ptr, align 8
  %4 = alloca ptr, align 8
  %5 = alloca i32, align 4
  store ptr %0, ptr %2, align 8
  call void @llvm.lifetime.start.p0(i64 8, ptr %3) #12
  call void @llvm.lifetime.start.p0(i64 8, ptr %4) #12
  %6 = load ptr, ptr %2, align 8
  %7 = getelementptr inbounds nuw %struct.vars, ptr %6, i32 0, i32 16
  %8 = load ptr, ptr %7, align 8
  %9 = icmp ne ptr %8, null
  br i1 %9, label %10, label %11

10:                                               ; preds = %1
  store i32 1, ptr %5, align 4
  br label %65

11:                                               ; preds = %1
  %12 = load ptr, ptr %2, align 8
  %13 = getelementptr inbounds nuw %struct.vars, ptr %12, i32 0, i32 13
  %14 = load ptr, ptr %13, align 8
  %15 = call ptr @newstate(ptr noundef %14)
  store ptr %15, ptr %3, align 8
  %16 = load ptr, ptr %2, align 8
  %17 = getelementptr inbounds nuw %struct.vars, ptr %16, i32 0, i32 3
  %18 = load i32, ptr %17, align 8
  %19 = icmp ne i32 %18, 0
  br i1 %19, label %20, label %21

20:                                               ; preds = %11
  store i32 1, ptr %5, align 4
  br label %65

21:                                               ; preds = %11
  %22 = load ptr, ptr %2, align 8
  %23 = getelementptr inbounds nuw %struct.vars, ptr %22, i32 0, i32 0
  %24 = load ptr, ptr %23, align 8
  %25 = getelementptr inbounds nuw %struct.pg_regex_t, ptr %24, i32 0, i32 2
  %26 = load i64, ptr %25, align 8
  %27 = or i64 %26, 1024
  store i64 %27, ptr %25, align 8
  %28 = load ptr, ptr %2, align 8
  %29 = load ptr, ptr %2, align 8
  %30 = getelementptr inbounds nuw %struct.vars, ptr %29, i32 0, i32 4
  %31 = load i32, ptr %30, align 4
  %32 = and i32 %31, 8
  %33 = call ptr @cclasscvec(ptr noundef %28, i32 noundef 13, i32 noundef %32)
  store ptr %33, ptr %4, align 8
  %34 = load ptr, ptr %2, align 8
  %35 = getelementptr inbounds nuw %struct.vars, ptr %34, i32 0, i32 3
  %36 = load i32, ptr %35, align 8
  %37 = icmp ne i32 %36, 0
  br i1 %37, label %38, label %39

38:                                               ; preds = %21
  store i32 1, ptr %5, align 4
  br label %65

39:                                               ; preds = %21
  %40 = load ptr, ptr %2, align 8
  %41 = load ptr, ptr %4, align 8
  %42 = load ptr, ptr %3, align 8
  %43 = load ptr, ptr %3, align 8
  call void @subcolorcvec(ptr noundef %40, ptr noundef %41, ptr noundef %42, ptr noundef %43)
  %44 = load ptr, ptr %2, align 8
  %45 = getelementptr inbounds nuw %struct.vars, ptr %44, i32 0, i32 3
  %46 = load i32, ptr %45, align 8
  %47 = icmp ne i32 %46, 0
  br i1 %47, label %48, label %49

48:                                               ; preds = %39
  store i32 1, ptr %5, align 4
  br label %65

49:                                               ; preds = %39
  %50 = load ptr, ptr %2, align 8
  %51 = getelementptr inbounds nuw %struct.vars, ptr %50, i32 0, i32 13
  %52 = load ptr, ptr %51, align 8
  %53 = load ptr, ptr %2, align 8
  %54 = getelementptr inbounds nuw %struct.vars, ptr %53, i32 0, i32 14
  %55 = load ptr, ptr %54, align 8
  call void @okcolors(ptr noundef %52, ptr noundef %55)
  %56 = load ptr, ptr %2, align 8
  %57 = getelementptr inbounds nuw %struct.vars, ptr %56, i32 0, i32 3
  %58 = load i32, ptr %57, align 8
  %59 = icmp ne i32 %58, 0
  br i1 %59, label %60, label %61

60:                                               ; preds = %49
  store i32 1, ptr %5, align 4
  br label %65

61:                                               ; preds = %49
  %62 = load ptr, ptr %3, align 8
  %63 = load ptr, ptr %2, align 8
  %64 = getelementptr inbounds nuw %struct.vars, ptr %63, i32 0, i32 16
  store ptr %62, ptr %64, align 8
  store i32 0, ptr %5, align 4
  br label %65

65:                                               ; preds = %61, %60, %48, %38, %20, %10
  call void @llvm.lifetime.end.p0(i64 8, ptr %4) #12
  call void @llvm.lifetime.end.p0(i64 8, ptr %3) #12
  %66 = load i32, ptr %5, align 4
  switch i32 %66, label %68 [
    i32 0, label %67
    i32 1, label %67
  ]

67:                                               ; preds = %65, %65
  ret void

68:                                               ; preds = %65
  unreachable
}