; Function Attrs: nounwind uwtable
define internal fastcc void @wordchrs(ptr noundef nonnull captures(none) %0) unnamed_addr #0 {
  %2 = getelementptr inbounds nuw i8, ptr %0, i64 176
  %3 = load ptr, ptr %2, align 8
  %.not = icmp eq ptr %3, null
  br i1 %.not, label %4, label %28

4:                                                ; preds = %1
  %5 = getelementptr inbounds nuw i8, ptr %0, i64 152
  %6 = load ptr, ptr %5, align 8
  %7 = tail call fastcc ptr @newstate(ptr noundef %6)
  %8 = getelementptr inbounds nuw i8, ptr %0, i64 24
  %9 = load i32, ptr %8, align 8
  %.not17 = icmp eq i32 %9, 0
  br i1 %.not17, label %10, label %28

10:                                               ; preds = %4
  %11 = load ptr, ptr %0, align 8
  %12 = getelementptr inbounds nuw i8, ptr %11, i64 16
  %13 = load i64, ptr %12, align 8
  %14 = or i64 %13, 1024
  store i64 %14, ptr %12, align 8
  %15 = getelementptr inbounds nuw i8, ptr %0, i64 28
  %16 = load i32, ptr %15, align 4
  %17 = and i32 %16, 8
  %18 = tail call fastcc ptr @cclasscvec(ptr noundef %0, i32 noundef 13, i32 noundef %17)
  %19 = load i32, ptr %8, align 8
  %.not18 = icmp eq i32 %19, 0
  br i1 %.not18, label %20, label %28

20:                                               ; preds = %10
  tail call fastcc void @subcolorcvec(ptr noundef %0, ptr noundef %18, ptr noundef %7, ptr noundef %7)
  %21 = load i32, ptr %8, align 8
  %.not19 = icmp eq i32 %21, 0
  br i1 %.not19, label %22, label %28

22:                                               ; preds = %20
  %23 = load ptr, ptr %5, align 8
  %24 = getelementptr inbounds nuw i8, ptr %0, i64 160
  %25 = load ptr, ptr %24, align 8
  tail call fastcc void @okcolors(ptr noundef %23, ptr noundef %25)
  %26 = load i32, ptr %8, align 8
  %.not20 = icmp eq i32 %26, 0
  br i1 %.not20, label %27, label %28

27:                                               ; preds = %22
  store ptr %7, ptr %2, align 8
  br label %28

28:                                               ; preds = %22, %20, %10, %4, %1, %27
  ret void
}